; Function Attrs: mustprogress uwtable
define hidden void @_ZN3sat4ddfw12reserve_varsEj(ptr noundef nonnull align 8 dereferenceable(434) %0, i32 noundef %1) local_unnamed_addr #4 align 2 {
  %3 = getelementptr inbounds nuw i8, ptr %0, i64 88
  %4 = load ptr, ptr %3, align 8, !tbaa !34
  %5 = icmp eq ptr %4, null
  br i1 %5, label %_ZNK6vectorIN3sat4ddfw8var_infoELb0EjE4sizeEv.exit.i, label %_ZNK6vectorIN3sat4ddfw8var_infoELb0EjE4sizeEv.exit.thread.i

_ZNK6vectorIN3sat4ddfw8var_infoELb0EjE4sizeEv.exit.i: ; preds = %2
  %.not.i = icmp eq i32 %1, 0
  br i1 %.not.i, label %_ZN6vectorIN3sat4ddfw8var_infoELb0EjE7reserveEj.exit, label %_ZNK6vectorIN3sat4ddfw8var_infoELb0EjE4sizeEv.exit.i.i.preheader

_ZNK6vectorIN3sat4ddfw8var_infoELb0EjE4sizeEv.exit.thread.i: ; preds = %2
  %6 = getelementptr inbounds i8, ptr %4, i64 -4
  %7 = load i32, ptr %6, align 4, !tbaa !26
  %8 = icmp ugt i32 %1, %7
  br i1 %8, label %_ZNK6vectorIN3sat4ddfw8var_infoELb0EjE4sizeEv.exit.i.i.preheader, label %_ZN6vectorIN3sat4ddfw8var_infoELb0EjE7reserveEj.exit

_ZNK6vectorIN3sat4ddfw8var_infoELb0EjE4sizeEv.exit.i.i.preheader: ; preds = %_ZNK6vectorIN3sat4ddfw8var_infoELb0EjE4sizeEv.exit.i, %_ZNK6vectorIN3sat4ddfw8var_infoELb0EjE4sizeEv.exit.thread.i
  %.ph = phi ptr [ %4, %_ZNK6vectorIN3sat4ddfw8var_infoELb0EjE4sizeEv.exit.thread.i ], [ null, %_ZNK6vectorIN3sat4ddfw8var_infoELb0EjE4sizeEv.exit.i ]
  %.0.i16.i.i.ph = phi i32 [ %7, %_ZNK6vectorIN3sat4ddfw8var_infoELb0EjE4sizeEv.exit.thread.i ], [ 0, %_ZNK6vectorIN3sat4ddfw8var_infoELb0EjE4sizeEv.exit.i ]
  br label %_ZNK6vectorIN3sat4ddfw8var_infoELb0EjE4sizeEv.exit.i.i

_ZNK6vectorIN3sat4ddfw8var_infoELb0EjE4sizeEv.exit.i.i: ; preds = %_ZNK6vectorIN3sat4ddfw8var_infoELb0EjE4sizeEv.exit.i.i.preheader, %_ZNK6vectorIN3sat4ddfw8var_infoELb0EjE8capacityEv.exit.thread.i.i
  %9 = phi ptr [ %.pr.pre.i.i, %_ZNK6vectorIN3sat4ddfw8var_infoELb0EjE8capacityEv.exit.thread.i.i ], [ %.ph, %_ZNK6vectorIN3sat4ddfw8var_infoELb0EjE4sizeEv.exit.i.i.preheader ]
  %10 = icmp eq ptr %9, null
  br i1 %10, label %_ZNK6vectorIN3sat4ddfw8var_infoELb0EjE8capacityEv.exit.thread.i.i, label %_ZNK6vectorIN3sat4ddfw8var_infoELb0EjE8capacityEv.exit.i.i

_ZNK6vectorIN3sat4ddfw8var_infoELb0EjE8capacityEv.exit.i.i: ; preds = %_ZNK6vectorIN3sat4ddfw8var_infoELb0EjE4sizeEv.exit.i.i
  %11 = getelementptr inbounds i8, ptr %9, i64 -8
  %12 = load i32, ptr %11, align 4, !tbaa !26
  %13 = icmp ugt i32 %1, %12
  br i1 %13, label %_ZNK6vectorIN3sat4ddfw8var_infoELb0EjE8capacityEv.exit.thread.i.i, label %14

_ZNK6vectorIN3sat4ddfw8var_infoELb0EjE8capacityEv.exit.thread.i.i: ; preds = %_ZNK6vectorIN3sat4ddfw8var_infoELb0EjE8capacityEv.exit.i.i, %_ZNK6vectorIN3sat4ddfw8var_infoELb0EjE4sizeEv.exit.i.i
  tail call void @_ZN6vectorIN3sat4ddfw8var_infoELb0EjE13expand_vectorEv(ptr noundef nonnull align 8 dereferenceable(8) %3)
  %.pr.pre.i.i = load ptr, ptr %3, align 8, !tbaa !34
  br label %_ZNK6vectorIN3sat4ddfw8var_infoELb0EjE4sizeEv.exit.i.i, !llvm.loop !173

14:                                               ; preds = %_ZNK6vectorIN3sat4ddfw8var_infoELb0EjE8capacityEv.exit.i.i
  %15 = getelementptr inbounds i8, ptr %9, i64 -4
  store i32 %1, ptr %15, align 4, !tbaa !26
  %16 = zext i32 %1 to i64
  %17 = getelementptr inbounds nuw %"struct.sat::ddfw::var_info", ptr %9, i64 %16
  %.not1218.i.i = icmp eq i32 %.0.i16.i.i.ph, %1
  br i1 %.not1218.i.i, label %_ZN6vectorIN3sat4ddfw8var_infoELb0EjE7reserveEj.exit, label %.lr.ph.preheader.i.i

.lr.ph.preheader.i.i:                             ; preds = %14
  %18 = zext i32 %.0.i16.i.i.ph to i64
  %19 = getelementptr inbounds nuw %"struct.sat::ddfw::var_info", ptr %9, i64 %18
  br label %.lr.ph.i.i

.lr.ph.i.i:                                       ; preds = %.lr.ph.i.i, %.lr.ph.preheader.i.i
  %.019.i.i = phi ptr [ %24, %.lr.ph.i.i ], [ %19, %.lr.ph.preheader.i.i ]
  store i8 0, ptr %.019.i.i, align 8, !tbaa !142
  %20 = getelementptr inbounds nuw i8, ptr %.019.i.i, i64 8
  %21 = getelementptr inbounds nuw i8, ptr %.019.i.i, i64 32
  tail call void @llvm.memset.p0.i64(ptr noundef nonnull align 8 dereferenceable(24) %20, i8 0, i64 24, i1 false)
  store double 1.000000e-05, ptr %21, align 8, !tbaa !165
  %22 = getelementptr inbounds nuw i8, ptr %.019.i.i, i64 40
  store double 1.000000e+00, ptr %22, align 8, !tbaa !163
  %23 = getelementptr inbounds nuw i8, ptr %.019.i.i, i64 48
  tail call void @llvm.memset.p0.i64(ptr noundef nonnull align 8 dereferenceable(16) %23, i8 0, i64 16, i1 false)
  %24 = getelementptr inbounds nuw i8, ptr %.019.i.i, i64 64
  %.not12.i.i = icmp eq ptr %24, %17
  br i1 %.not12.i.i, label %_ZN6vectorIN3sat4ddfw8var_infoELb0EjE7reserveEj.exit, label %.lr.ph.i.i, !llvm.loop !174

_ZN6vectorIN3sat4ddfw8var_infoELb0EjE7reserveEj.exit: ; preds = %.lr.ph.i.i, %_ZNK6vectorIN3sat4ddfw8var_infoELb0EjE4sizeEv.exit.i, %_ZNK6vectorIN3sat4ddfw8var_infoELb0EjE4sizeEv.exit.thread.i, %14
  ret void
}